; Function Attrs: mustprogress nounwind uwtable
define hidden void @_ZN13GrowableCache10initializeEPvPFvS0_PPhE(ptr nocapture noundef nonnull align 8 dereferenceable(32) %0, ptr noundef %1, ptr noundef %2) local_unnamed_addr #0 align 2 {
  store ptr %1, ptr %0, align 8
  %4 = getelementptr inbounds i8, ptr %0, i64 24
  store ptr %2, ptr %4, align 8
  %5 = tail call noundef ptr @_ZN6AnyObjnwEm8MEMFLAGS(i64 noundef 24, i8 noundef zeroext 23) #17
  %6 = icmp eq ptr %5, null
  br i1 %6, label %12, label %7

7:                                                ; preds = %3
  %8 = tail call noundef ptr @_ZN27GrowableArrayCHeapAllocator8allocateEii8MEMFLAGS(i32 noundef 5, i32 noundef 8, i8 noundef zeroext 23) #17
  store i32 0, ptr %5, align 4
  %9 = getelementptr inbounds i8, ptr %5, i64 4
  store i32 5, ptr %9, align 4
  %10 = getelementptr inbounds i8, ptr %5, i64 8
  store ptr %8, ptr %10, align 8
  tail call void @llvm.memset.p0.i64(ptr noundef nonnull align 8 dereferenceable(40) %8, i8 0, i64 40, i1 false)
  %11 = getelementptr inbounds i8, ptr %5, i64 16
  store i64 47, ptr %11, align 8
  br label %12

12:                                               ; preds = %7, %3
  %13 = getelementptr inbounds i8, ptr %0, i64 8
  store ptr %5, ptr %13, align 8
  tail call void @_ZN13GrowableCache7recacheEv(ptr noundef nonnull align 8 dereferenceable(32) %0)
  ret void
}